target datalayout = "e-m:e-p270:32:32-p271:32:32-p272:64:64-i64:64-i128:128-f80:128-n8:16:32:64-S128"
target triple = "x86_64-pc-linux-gnu"

%struct.pmix_mca_base_framework_t = type { ptr, ptr, ptr, ptr, ptr, ptr, i32, i32, ptr, ptr, i32, i32, %struct.pmix_list_t, %struct.pmix_list_t }
%struct.pmix_list_t = type { %struct.pmix_object_t, %struct.pmix_list_item_t, i64 }
%struct.pmix_object_t = type { %union.pthread_mutex_t, ptr, i32, %struct.pmix_tma }
%union.pthread_mutex_t = type { %struct.__pthread_mutex_s }
%struct.__pthread_mutex_s = type { i32, i32, i32, i32, i32, i16, i16, %struct.__pthread_internal_list }
%struct.__pthread_internal_list = type { ptr, ptr }
%struct.pmix_tma = type { ptr, ptr, ptr, ptr, ptr, ptr, ptr, ptr }
%struct.pmix_list_item_t = type { %struct.pmix_object_t, ptr, ptr, i32 }
%struct.pmix_output_desc_t = type { i8, i8, i32, i8, i32, ptr, ptr, i32, ptr, i32, i8, i8, i8, i8, ptr, i32, i32 }
%struct.pmix_buffer_t = type { %struct.pmix_object_t, i8, ptr, ptr, ptr, i64, i64 }
%struct.pmix_bfrop_type_info_t = type { %struct.pmix_object_t, i16, ptr, ptr, ptr, ptr, ptr }
%struct.pmix_pointer_array_t = type { %struct.pmix_object_t, i32, i32, i32, i32, i32, ptr, ptr }

@.str = private unnamed_addr constant [37 x i8] c"PMIX ERROR: %s in file %s at line %d\00", align 1
@.str.1 = private unnamed_addr constant [23 x i8] c"base/bfrop_base_pack.c\00", align 1
@pmix_bfrops_base_framework = external global %struct.pmix_mca_base_framework_t, align 8
@pmix_output_info = external global [0 x %struct.pmix_output_desc_t], align 8
@.str.2 = private unnamed_addr constant [49 x i8] c"pmix_bfrops_base_pack_buffer( %p, %p, %lu, %d )\0A\00", align 1

; Function Attrs: nounwind uwtable
define i32 @pmix_bfrops_base_pack_buffer(ptr noundef %0, ptr noundef %1, ptr noundef %2, i32 noundef %3, i16 noundef zeroext %4) #0 {
  %6 = alloca i32, align 4
  %7 = alloca ptr, align 8
  %8 = alloca ptr, align 8
  %9 = alloca ptr, align 8
  %10 = alloca i32, align 4
  %11 = alloca i16, align 2
  %12 = alloca i32, align 4
  %13 = alloca i32, align 4
  %14 = alloca ptr, align 8
  store ptr %0, ptr %7, align 8, !tbaa !3
  store ptr %1, ptr %8, align 8, !tbaa !8
  store ptr %2, ptr %9, align 8, !tbaa !8
  store i32 %3, ptr %10, align 4, !tbaa !9
  store i16 %4, ptr %11, align 2, !tbaa !11
  call void @llvm.lifetime.start.p0(i64 4, ptr %12) #9
  %15 = load i32, ptr getelementptr inbounds nuw (%struct.pmix_mca_base_framework_t, ptr @pmix_bfrops_base_framework, i32 0, i32 11), align 4, !tbaa !26
  %16 = icmp sge i32 %15, 0
  br i1 %16, label %17, label %35

17:                                               ; preds = %5
  %18 = load i32, ptr getelementptr inbounds nuw (%struct.pmix_mca_base_framework_t, ptr @pmix_bfrops_base_framework, i32 0, i32 11), align 4, !tbaa !26
  %19 = icmp slt i32 %18, 64
  br i1 %19, label %20, label %35

20:                                               ; preds = %17
  %21 = load i32, ptr getelementptr inbounds nuw (%struct.pmix_mca_base_framework_t, ptr @pmix_bfrops_base_framework, i32 0, i32 11), align 4, !tbaa !26
  %22 = sext i32 %21 to i64
  %23 = getelementptr inbounds [0 x %struct.pmix_output_desc_t], ptr @pmix_output_info, i64 0, i64 %22
  %24 = getelementptr inbounds nuw %struct.pmix_output_desc_t, ptr %23, i32 0, i32 2
  %25 = load i32, ptr %24, align 4, !tbaa !32
  %26 = icmp sge i32 %25, 20
  br i1 %26, label %27, label %35

27:                                               ; preds = %20
  %28 = load i32, ptr getelementptr inbounds nuw (%struct.pmix_mca_base_framework_t, ptr @pmix_bfrops_base_framework, i32 0, i32 11), align 4, !tbaa !26
  %29 = load ptr, ptr %8, align 8, !tbaa !8
  %30 = load ptr, ptr %9, align 8, !tbaa !8
  %31 = load i32, ptr %10, align 4, !tbaa !9
  %32 = sext i32 %31 to i64
  %33 = load i16, ptr %11, align 2, !tbaa !11
  %34 = zext i16 %33 to i32
  call void (i32, ptr, ...) @pmix_output(i32 noundef %28, ptr noundef @.str.2, ptr noundef %29, ptr noundef %30, i64 noundef %32, i32 noundef %34)
  br label %35

35:                                               ; preds = %27, %20, %17, %5
  %36 = load ptr, ptr %8, align 8, !tbaa !8
  %37 = getelementptr inbounds nuw %struct.pmix_buffer_t, ptr %36, i32 0, i32 1
  %38 = load i8, ptr %37, align 8, !tbaa !13
  %39 = zext i8 %38 to i32
  %40 = icmp eq i32 2, %39
  br i1 %40, label %41, label %50

41:                                               ; preds = %35
  %42 = load ptr, ptr %7, align 8, !tbaa !3
  %43 = load ptr, ptr %8, align 8, !tbaa !8
  %44 = load i16, ptr %11, align 2, !tbaa !11
  %45 = call i32 @pmix_bfrop_store_data_type(ptr noundef %42, ptr noundef %43, i16 noundef zeroext %44)
  store i32 %45, ptr %12, align 4, !tbaa !9
  %46 = icmp ne i32 0, %45
  br i1 %46, label %47, label %49

47:                                               ; preds = %41
  %48 = load i32, ptr %12, align 4, !tbaa !9
  store i32 %48, ptr %6, align 4
  store i32 1, ptr %13, align 4
  br label %73

49:                                               ; preds = %41
  br label %50

50:                                               ; preds = %49, %35
  br label %51

51:                                               ; preds = %50
  call void @llvm.lifetime.start.p0(i64 8, ptr %14) #9
  %52 = load ptr, ptr %7, align 8, !tbaa !3
  %53 = load i16, ptr %11, align 2, !tbaa !11
  %54 = zext i16 %53 to i32
  %55 = call ptr @pmix_pointer_array_get_item(ptr noundef %52, i32 noundef %54)
  store ptr %55, ptr %14, align 8, !tbaa !8
  %56 = load ptr, ptr %14, align 8, !tbaa !8
  %57 = icmp eq ptr null, %56
  br i1 %57, label %58, label %59

58:                                               ; preds = %51
  store i32 -16, ptr %12, align 4, !tbaa !9
  br label %69

59:                                               ; preds = %51
  %60 = load ptr, ptr %14, align 8, !tbaa !8
  %61 = getelementptr inbounds nuw %struct.pmix_bfrop_type_info_t, ptr %60, i32 0, i32 3
  %62 = load ptr, ptr %61, align 8, !tbaa !20
  %63 = load ptr, ptr %7, align 8, !tbaa !3
  %64 = load ptr, ptr %8, align 8, !tbaa !8
  %65 = load ptr, ptr %9, align 8, !tbaa !8
  %66 = load i32, ptr %10, align 4, !tbaa !9
  %67 = load i16, ptr %11, align 2, !tbaa !11
  %68 = call i32 %62(ptr noundef %63, ptr noundef %64, ptr noundef %65, i32 noundef %66, i16 noundef zeroext %67)
  store i32 %68, ptr %12, align 4, !tbaa !9
  br label %69

69:                                               ; preds = %59, %58
  call void @llvm.lifetime.end.p0(i64 8, ptr %14) #9
  br label %70

70:                                               ; preds = %69
  br label %71

71:                                               ; preds = %70
  %72 = load i32, ptr %12, align 4, !tbaa !9
  store i32 %72, ptr %6, align 4
  store i32 1, ptr %13, align 4
  br label %73

73:                                               ; preds = %71, %47
  call void @llvm.lifetime.end.p0(i64 4, ptr %12) #9
  %74 = load i32, ptr %6, align 4
  ret i32 %74
}

; Function Attrs: inlinehint nounwind uwtable
define internal ptr @pmix_pointer_array_get_item(ptr noundef %0, i32 noundef %1) #3 {
  %3 = alloca ptr, align 8
  %4 = alloca ptr, align 8
  %5 = alloca i32, align 4
  %6 = alloca ptr, align 8
  %7 = alloca i32, align 4
  store ptr %0, ptr %4, align 8, !tbaa !3
  store i32 %1, ptr %5, align 4, !tbaa !9
  call void @llvm.lifetime.start.p0(i64 8, ptr %6) #9
  %8 = load i32, ptr %5, align 4, !tbaa !9
  %9 = icmp sgt i32 0, %8
  br i1 %9, label %16, label %10

10:                                               ; preds = %2
  %11 = load ptr, ptr %4, align 8, !tbaa !3
  %12 = getelementptr inbounds nuw %struct.pmix_pointer_array_t, ptr %11, i32 0, i32 3
  %13 = load i32, ptr %12, align 8, !tbaa !22
  %14 = load i32, ptr %5, align 4, !tbaa !9
  %15 = icmp sle i32 %13, %14
  br label %16

16:                                               ; preds = %10, %2
  %17 = phi i1 [ true, %2 ], [ %15, %10 ]
  %18 = xor i1 %17, true
  %19 = xor i1 %18, true
  %20 = zext i1 %19 to i32
  %21 = sext i32 %20 to i64
  %22 = call i64 @llvm.expect.i64(i64 %21, i64 0)
  %23 = icmp ne i64 %22, 0
  br i1 %23, label %24, label %25

24:                                               ; preds = %16
  store ptr null, ptr %3, align 8
  store i32 1, ptr %7, align 4
  br label %34

25:                                               ; preds = %16
  %26 = load ptr, ptr %4, align 8, !tbaa !3
  %27 = getelementptr inbounds nuw %struct.pmix_pointer_array_t, ptr %26, i32 0, i32 7
  %28 = load ptr, ptr %27, align 8, !tbaa !25
  %29 = load i32, ptr %5, align 4, !tbaa !9
  %30 = sext i32 %29 to i64
  %31 = getelementptr inbounds ptr, ptr %28, i64 %30
  %32 = load ptr, ptr %31, align 8, !tbaa !8
  store ptr %32, ptr %6, align 8, !tbaa !8
  %33 = load ptr, ptr %6, align 8, !tbaa !8
  store ptr %33, ptr %3, align 8
  store i32 1, ptr %7, align 4
  br label %34

34:                                               ; preds = %25, %24
  call void @llvm.lifetime.end.p0(i64 8, ptr %6) #9
  %35 = load ptr, ptr %3, align 8
  ret ptr %35
}

; Function Attrs: nounwind uwtable
define i32 @pmix_bfrops_base_pack(ptr noundef %0, ptr noundef %1, ptr noundef %2, i32 noundef %3, i16 noundef zeroext %4) #0 {
  %6 = alloca i32, align 4
  %7 = alloca ptr, align 8
  %8 = alloca ptr, align 8
  %9 = alloca ptr, align 8
  %10 = alloca i32, align 4
  %11 = alloca i16, align 2
  %12 = alloca i32, align 4
  %13 = alloca i32, align 4
  %14 = alloca ptr, align 8
  store ptr %0, ptr %7, align 8, !tbaa !3
  store ptr %1, ptr %8, align 8, !tbaa !8
  store ptr %2, ptr %9, align 8, !tbaa !8
  store i32 %3, ptr %10, align 4, !tbaa !9
  store i16 %4, ptr %11, align 2, !tbaa !11
  call void @llvm.lifetime.start.p0(i64 4, ptr %12) #9
  %15 = load ptr, ptr %8, align 8, !tbaa !8
  %16 = icmp eq ptr null, %15
  br i1 %16, label %23, label %17

17:                                               ; preds = %5
  %18 = load ptr, ptr %9, align 8, !tbaa !8
  %19 = icmp eq ptr null, %18
  br i1 %19, label %20, label %28

20:                                               ; preds = %17
  %21 = load i32, ptr %10, align 4, !tbaa !9
  %22 = icmp slt i32 0, %21
  br i1 %22, label %23, label %28

23:                                               ; preds = %20, %5
  br label %24

24:                                               ; preds = %23
  %25 = call ptr @PMIx_Error_string(i32 noundef -27)
  call void (i32, ptr, ...) @pmix_output(i32 noundef 0, ptr noundef @.str, ptr noundef %25, ptr noundef @.str.1, i32 noundef 47)
  br label %26

26:                                               ; preds = %24
  br label %27

27:                                               ; preds = %26
  store i32 -27, ptr %6, align 4
  store i32 1, ptr %13, align 4
  br label %70

28:                                               ; preds = %20, %17
  %29 = load ptr, ptr %8, align 8, !tbaa !8
  %30 = getelementptr inbounds nuw %struct.pmix_buffer_t, ptr %29, i32 0, i32 1
  %31 = load i8, ptr %30, align 8, !tbaa !13
  %32 = zext i8 %31 to i32
  %33 = icmp eq i32 2, %32
  br i1 %33, label %34, label %42

34:                                               ; preds = %28
  %35 = load ptr, ptr %7, align 8, !tbaa !3
  %36 = load ptr, ptr %8, align 8, !tbaa !8
  %37 = call i32 @pmix_bfrop_store_data_type(ptr noundef %35, ptr noundef %36, i16 noundef zeroext 9)
  store i32 %37, ptr %12, align 4, !tbaa !9
  %38 = icmp ne i32 0, %37
  br i1 %38, label %39, label %41

39:                                               ; preds = %34
  %40 = load i32, ptr %12, align 4, !tbaa !9
  store i32 %40, ptr %6, align 4
  store i32 1, ptr %13, align 4
  br label %70

41:                                               ; preds = %34
  br label %42

42:                                               ; preds = %41, %28
  br label %43

43:                                               ; preds = %42
  call void @llvm.lifetime.start.p0(i64 8, ptr %14) #9
  %44 = load ptr, ptr %7, align 8, !tbaa !3
  %45 = call ptr @pmix_pointer_array_get_item(ptr noundef %44, i32 noundef 9)
  store ptr %45, ptr %14, align 8, !tbaa !8
  %46 = load ptr, ptr %14, align 8, !tbaa !8
  %47 = icmp eq ptr null, %46
  br i1 %47, label %48, label %49

48:                                               ; preds = %43
  store i32 -16, ptr %12, align 4, !tbaa !9
  br label %56

49:                                               ; preds = %43
  %50 = load ptr, ptr %14, align 8, !tbaa !8
  %51 = getelementptr inbounds nuw %struct.pmix_bfrop_type_info_t, ptr %50, i32 0, i32 3
  %52 = load ptr, ptr %51, align 8, !tbaa !20
  %53 = load ptr, ptr %7, align 8, !tbaa !3
  %54 = load ptr, ptr %8, align 8, !tbaa !8
  %55 = call i32 %52(ptr noundef %53, ptr noundef %54, ptr noundef %10, i32 noundef 1, i16 noundef zeroext 9)
  store i32 %55, ptr %12, align 4, !tbaa !9
  br label %56

56:                                               ; preds = %49, %48
  call void @llvm.lifetime.end.p0(i64 8, ptr %14) #9
  br label %57

57:                                               ; preds = %56
  br label %58

58:                                               ; preds = %57
  %59 = load i32, ptr %12, align 4, !tbaa !9
  %60 = icmp ne i32 0, %59
  br i1 %60, label %61, label %63

61:                                               ; preds = %58
  %62 = load i32, ptr %12, align 4, !tbaa !9
  store i32 %62, ptr %6, align 4
  store i32 1, ptr %13, align 4
  br label %70

63:                                               ; preds = %58
  %64 = load ptr, ptr %7, align 8, !tbaa !3
  %65 = load ptr, ptr %8, align 8, !tbaa !8
  %66 = load ptr, ptr %9, align 8, !tbaa !8
  %67 = load i32, ptr %10, align 4, !tbaa !9
  %68 = load i16, ptr %11, align 2, !tbaa !11
  %69 = call i32 @pmix_bfrops_base_pack_buffer(ptr noundef %64, ptr noundef %65, ptr noundef %66, i32 noundef %67, i16 noundef zeroext %68)
  store i32 %69, ptr %6, align 4
  store i32 1, ptr %13, align 4
  br label %70

70:                                               ; preds = %63, %61, %39, %27
  call void @llvm.lifetime.end.p0(i64 4, ptr %12) #9
  %71 = load i32, ptr %6, align 4
  ret i32 %71
}