; Function Attrs: nounwind uwtable
define i32 @pmix_bfrops_base_pack(ptr noundef %0, ptr noundef %1, ptr noundef %2, i32 noundef %3, i16 noundef zeroext %4) local_unnamed_addr #0 {
  %6 = alloca i32, align 4
  store i32 %3, ptr %6, align 4, !tbaa !3
  %7 = icmp eq ptr %1, null
  br i1 %7, label %11, label %8

8:                                                ; preds = %5
  %9 = icmp eq ptr %2, null
  %10 = icmp sgt i32 %3, 0
  %or.cond = and i1 %9, %10
  br i1 %or.cond, label %11, label %13

11:                                               ; preds = %5, %8
  %12 = tail call ptr @PMIx_Error_string(i32 noundef -27) #8
  tail call void (i32, ptr, ...) @pmix_output(i32 noundef 0, ptr noundef nonnull @.str, ptr noundef %12, ptr noundef nonnull @.str.1, i32 noundef 47) #8
  br label %pmix_bfrops_base_pack_buffer.exit

13:                                               ; preds = %8
  %14 = getelementptr inbounds nuw i8, ptr %1, i64 120
  %15 = load i8, ptr %14, align 8, !tbaa !7
  %16 = icmp eq i8 %15, 2
  br i1 %16, label %17, label %19

17:                                               ; preds = %13
  %18 = tail call i32 @pmix_bfrop_store_data_type(ptr noundef %0, ptr noundef nonnull %1, i16 noundef zeroext 9) #8
  %.not = icmp eq i32 %18, 0
  br i1 %.not, label %19, label %pmix_bfrops_base_pack_buffer.exit

19:                                               ; preds = %13, %17
  %20 = getelementptr inbounds nuw i8, ptr %0, i64 128
  %21 = load i32, ptr %20, align 8, !tbaa !15
  %.not.i = icmp sgt i32 %21, 9
  br i1 %.not.i, label %pmix_pointer_array_get_item.exit, label %pmix_bfrops_base_pack_buffer.exit, !prof !18

pmix_pointer_array_get_item.exit:                 ; preds = %19
  %22 = getelementptr inbounds nuw i8, ptr %0, i64 152
  %23 = load ptr, ptr %22, align 8, !tbaa !19
  %24 = getelementptr inbounds nuw i8, ptr %23, i64 72
  %25 = load ptr, ptr %24, align 8, !tbaa !20
  %26 = icmp eq ptr %25, null
  br i1 %26, label %pmix_bfrops_base_pack_buffer.exit, label %27

27:                                               ; preds = %pmix_pointer_array_get_item.exit
  %28 = getelementptr inbounds nuw i8, ptr %25, i64 136
  %29 = load ptr, ptr %28, align 8, !tbaa !21
  %30 = call i32 %29(ptr noundef nonnull %0, ptr noundef nonnull %1, ptr noundef nonnull %6, i32 noundef 1, i16 noundef zeroext 9) #8
  %.not22 = icmp eq i32 %30, 0
  br i1 %.not22, label %31, label %pmix_bfrops_base_pack_buffer.exit

31:                                               ; preds = %27
  %32 = load i32, ptr %6, align 4, !tbaa !3
  %33 = load i32, ptr getelementptr inbounds nuw (i8, ptr @pmix_bfrops_base_framework, i64 76), align 4, !tbaa !24
  %or.cond.i = icmp ult i32 %33, 64
  br i1 %or.cond.i, label %34, label %42

34:                                               ; preds = %31
  %35 = zext nneg i32 %33 to i64
  %36 = getelementptr inbounds nuw [0 x %struct.pmix_output_desc_t], ptr @pmix_output_info, i64 0, i64 %35, i32 2
  %37 = load i32, ptr %36, align 4, !tbaa !30
  %38 = icmp sgt i32 %37, 19
  br i1 %38, label %39, label %42

39:                                               ; preds = %34
  %40 = sext i32 %32 to i64
  %41 = zext i16 %4 to i32
  call void (i32, ptr, ...) @pmix_output(i32 noundef %33, ptr noundef nonnull @.str.2, ptr noundef nonnull %1, ptr noundef %2, i64 noundef %40, i32 noundef %41) #8
  br label %42

42:                                               ; preds = %39, %34, %31
  %43 = load i8, ptr %14, align 8, !tbaa !7
  %44 = icmp eq i8 %43, 2
  br i1 %44, label %45, label %47

45:                                               ; preds = %42
  %46 = call i32 @pmix_bfrop_store_data_type(ptr noundef nonnull %0, ptr noundef nonnull %1, i16 noundef zeroext %4) #8
  %.not.i24 = icmp eq i32 %46, 0
  br i1 %.not.i24, label %47, label %pmix_bfrops_base_pack_buffer.exit

47:                                               ; preds = %45, %42
  %48 = zext i16 %4 to i32
  %49 = load i32, ptr %20, align 8, !tbaa !15
  %.not.i.i = icmp sgt i32 %49, %48
  br i1 %.not.i.i, label %pmix_pointer_array_get_item.exit.i, label %pmix_bfrops_base_pack_buffer.exit, !prof !18

pmix_pointer_array_get_item.exit.i:               ; preds = %47
  %50 = load ptr, ptr %22, align 8, !tbaa !19
  %51 = zext i16 %4 to i64
  %52 = getelementptr inbounds nuw ptr, ptr %50, i64 %51
  %53 = load ptr, ptr %52, align 8, !tbaa !20
  %54 = icmp eq ptr %53, null
  br i1 %54, label %pmix_bfrops_base_pack_buffer.exit, label %55

55:                                               ; preds = %pmix_pointer_array_get_item.exit.i
  %56 = getelementptr inbounds nuw i8, ptr %53, i64 136
  %57 = load ptr, ptr %56, align 8, !tbaa !21
  %58 = call i32 %57(ptr noundef nonnull %0, ptr noundef nonnull %1, ptr noundef %2, i32 noundef %32, i16 noundef zeroext %4) #8
  br label %pmix_bfrops_base_pack_buffer.exit

pmix_bfrops_base_pack_buffer.exit:                ; preds = %19, %pmix_pointer_array_get_item.exit, %55, %pmix_pointer_array_get_item.exit.i, %47, %45, %27, %17, %11
  %.0 = phi i32 [ -27, %11 ], [ %18, %17 ], [ %30, %27 ], [ %46, %45 ], [ %58, %55 ], [ -16, %pmix_pointer_array_get_item.exit.i ], [ -16, %47 ], [ -16, %pmix_pointer_array_get_item.exit ], [ -16, %19 ]
  ret i32 %.0
}